; Function Attrs: nounwind uwtable
define dso_local noundef ptr @list_copy_head(ptr noundef readonly captures(address_is_null) %0, i32 noundef %1) local_unnamed_addr #0 {
  %3 = icmp eq ptr %0, null
  %4 = icmp slt i32 %1, 1
  %or.cond = or i1 %3, %4
  br i1 %or.cond, label %29, label %5

5:                                                ; preds = %2
  %6 = getelementptr inbounds nuw i8, ptr %0, i64 4
  %7 = load i32, ptr %6, align 4
  %. = tail call i32 @llvm.smin.i32(i32 %7, i32 %1)
  %8 = load i32, ptr %0, align 8
  %9 = add i32 %., 3
  %10 = tail call i32 @llvm.smax.i32(i32 %9, i32 8)
  %11 = tail call range(i32 1, 32) i32 @llvm.ctpop.i32(i32 %10)
  %12 = icmp samesign ult i32 %11, 2
  %13 = tail call range(i32 0, 33) i32 @llvm.ctlz.i32(i32 %10, i1 true)
  %14 = xor i32 %13, 31
  %15 = shl nuw i32 2, %14
  %.0.i.i = select i1 %12, i32 %10, i32 %15
  %16 = add i32 %.0.i.i, -3
  %17 = zext nneg i32 %16 to i64
  %18 = shl nuw nsw i64 %17, 3
  %19 = add nuw nsw i64 %18, 24
  %20 = tail call ptr @palloc(i64 noundef %19) #9
  store i32 %8, ptr %20, align 8
  %21 = getelementptr inbounds nuw i8, ptr %20, i64 4
  store i32 %., ptr %21, align 4
  %22 = getelementptr inbounds nuw i8, ptr %20, i64 8
  store i32 %16, ptr %22, align 8
  %23 = getelementptr inbounds nuw i8, ptr %20, i64 24
  %24 = getelementptr inbounds nuw i8, ptr %20, i64 16
  store ptr %23, ptr %24, align 8
  %25 = getelementptr inbounds nuw i8, ptr %0, i64 16
  %26 = load ptr, ptr %25, align 8
  %27 = sext i32 %. to i64
  %28 = shl nsw i64 %27, 3
  tail call void @llvm.memcpy.p0.p0.i64(ptr nonnull align 8 %23, ptr align 8 %26, i64 %28, i1 false)
  br label %29

29:                                               ; preds = %2, %5
  %.0 = phi ptr [ %20, %5 ], [ null, %2 ]
  ret ptr %.0
}